; Function Attrs: nounwind sspstrong uwtable
define internal fastcc void @CC_DUP_WARN(ptr noundef captures(none) %0) unnamed_addr #5 {
  %2 = load ptr, ptr @onig_warn, align 8, !tbaa !7
  %3 = icmp eq ptr %2, @onig_null_warn
  br i1 %3, label %20, label %4

4:                                                ; preds = %1
  %5 = tail call ptr @rb_ruby_verbose_ptr() #25
  %6 = load i64, ptr %5, align 8, !tbaa !54
  %7 = and i64 %6, -5
  %.not5 = icmp eq i64 %7, 0
  br i1 %.not5, label %20, label %8

8:                                                ; preds = %4
  %9 = getelementptr inbounds nuw i8, ptr %0, i64 16
  %10 = load ptr, ptr %9, align 8, !tbaa !85
  %11 = getelementptr inbounds nuw i8, ptr %10, i64 8
  %12 = load i32, ptr %11, align 4, !tbaa !58
  %13 = and i32 %12, 67108864
  %.not = icmp eq i32 %13, 0
  br i1 %.not, label %20, label %14

14:                                               ; preds = %8
  %15 = getelementptr inbounds nuw i8, ptr %0, i64 180
  %16 = load i32, ptr %15, align 4, !tbaa !124
  %17 = and i32 %16, 67108864
  %.not4 = icmp eq i32 %17, 0
  br i1 %.not4, label %18, label %20

18:                                               ; preds = %14
  %19 = or disjoint i32 %16, 67108864
  store i32 %19, ptr %15, align 4, !tbaa !124
  tail call void (ptr, ptr, ...) @onig_syntax_warn(ptr noundef nonnull %0, ptr noundef nonnull @.str.7)
  br label %20

20:                                               ; preds = %1, %4, %18, %14, %8
  ret void
}